; Function Attrs: mustprogress nounwind uwtable
define hidden noundef nonnull ptr @_ZN6hermes9IRBuilder24createDeletePropertyInstEPNS_5ValueEN4llvh9StringRefE(ptr noundef nonnull readonly align 8 captures(none) dereferenceable(40) %this, ptr noundef %object, ptr %property.coerce0, i64 %property.coerce1) local_unnamed_addr #0 align 2 {
entry:
  %0 = load ptr, ptr %this, align 8
  %Ctx.i.i = getelementptr inbounds nuw i8, ptr %0, i64 40
  %1 = load ptr, ptr %Ctx.i.i, align 8
  %stringTable_.i.i = getelementptr inbounds nuw i8, ptr %1, i64 72
  %call.i.i.i = tail call noundef ptr @_ZN6hermes11StringTable9getStringEN4llvh9StringRefE(ptr noundef nonnull align 8 dereferenceable(32) %stringTable_.i.i, ptr %property.coerce0, i64 %property.coerce1)
  %call4 = tail call noundef ptr @_ZN6hermes9IRBuilder24createDeletePropertyInstEPNS_5ValueENS_10IdentifierE(ptr noundef nonnull align 8 dereferenceable(40) %this, ptr noundef %object, ptr %call.i.i.i)
  ret ptr %call4
}